target datalayout = "e-m:e-p270:32:32-p271:32:32-p272:64:64-i64:64-i128:128-f80:128-n8:16:32:64-S128"
target triple = "x86_64-pc-linux-gnu"

%struct.context_type = type { ptr, ptr, i32, i8, ptr, [16 x %struct.alloc_stack_type], i32, ptr, i32, i32, ptr, %struct.hash_table_type, i32, i32, i32, i32, i32, i32, i32, i32, ptr, ptr, i32, ptr, ptr, ptr, ptr, i32, i32, [4 x i32], i32, i32, ptr, ptr, ptr, i32, [1 x %struct.__jmp_buf_tag] }
%struct.alloc_stack_type = type { ptr, i32, ptr }
%struct.hash_table_type = type { ptr, ptr, i32 }
%struct.__jmp_buf_tag = type { [8 x i64], i32, %struct.__sigset_t }
%struct.__sigset_t = type { [16 x i64] }
%struct.JNINativeInterface_ = type { ptr, ptr, ptr, ptr, ptr, ptr, ptr, ptr, ptr, ptr, ptr, ptr, ptr, ptr, ptr, ptr, ptr, ptr, ptr, ptr, ptr, ptr, ptr, ptr, ptr, ptr, ptr, ptr, ptr, ptr, ptr, ptr, ptr, ptr, ptr, ptr, ptr, ptr, ptr, ptr, ptr, ptr, ptr, ptr, ptr, ptr, ptr, ptr, ptr, ptr, ptr, ptr, ptr, ptr, ptr, ptr, ptr, ptr, ptr, ptr, ptr, ptr, ptr, ptr, ptr, ptr, ptr, ptr, ptr, ptr, ptr, ptr, ptr, ptr, ptr, ptr, ptr, ptr, ptr, ptr, ptr, ptr, ptr, ptr, ptr, ptr, ptr, ptr, ptr, ptr, ptr, ptr, ptr, ptr, ptr, ptr, ptr, ptr, ptr, ptr, ptr, ptr, ptr, ptr, ptr, ptr, ptr, ptr, ptr, ptr, ptr, ptr, ptr, ptr, ptr, ptr, ptr, ptr, ptr, ptr, ptr, ptr, ptr, ptr, ptr, ptr, ptr, ptr, ptr, ptr, ptr, ptr, ptr, ptr, ptr, ptr, ptr, ptr, ptr, ptr, ptr, ptr, ptr, ptr, ptr, ptr, ptr, ptr, ptr, ptr, ptr, ptr, ptr, ptr, ptr, ptr, ptr, ptr, ptr, ptr, ptr, ptr, ptr, ptr, ptr, ptr, ptr, ptr, ptr, ptr, ptr, ptr, ptr, ptr, ptr, ptr, ptr, ptr, ptr, ptr, ptr, ptr, ptr, ptr, ptr, ptr, ptr, ptr, ptr, ptr, ptr, ptr, ptr, ptr, ptr, ptr, ptr, ptr, ptr, ptr, ptr, ptr, ptr, ptr, ptr, ptr, ptr, ptr, ptr, ptr, ptr, ptr, ptr, ptr, ptr, ptr, ptr, ptr, ptr, ptr, ptr, ptr, ptr, ptr, ptr, ptr, ptr, ptr, ptr, ptr, ptr, ptr, ptr, ptr, ptr }
%struct.hash_bucket_type = type { ptr, i32, ptr, i16, i16, i8 }

@.str.51 = private unnamed_addr constant [21 x i8] c"Cannot find class %s\00", align 1

; Function Attrs: nounwind uwtable
define internal void @CCout_of_memory(ptr noundef %0) #0 {
  %2 = alloca ptr, align 8
  %3 = alloca i32, align 4
  store ptr %0, ptr %2, align 8
  %4 = load ptr, ptr %2, align 8
  %5 = call i32 @print_CCerror_info(ptr noundef %4)
  store i32 %5, ptr %3, align 4
  %6 = load ptr, ptr %2, align 8
  %7 = getelementptr inbounds %struct.context_type, ptr %6, i32 0, i32 3
  store i8 2, ptr %7, align 4
  %8 = load ptr, ptr %2, align 8
  %9 = getelementptr inbounds %struct.context_type, ptr %8, i32 0, i32 36
  %10 = getelementptr inbounds [1 x %struct.__jmp_buf_tag], ptr %9, i64 0, i64 0
  call void @longjmp(ptr noundef %10, i32 noundef 1) #12
  unreachable
}

; Function Attrs: nounwind uwtable
define internal ptr @load_class_local(ptr noundef %0, ptr noundef %1) #0 {
  %3 = alloca ptr, align 8
  %4 = alloca ptr, align 8
  %5 = alloca ptr, align 8
  store ptr %0, ptr %3, align 8
  store ptr %1, ptr %4, align 8
  %6 = load ptr, ptr %3, align 8
  %7 = getelementptr inbounds %struct.context_type, ptr %6, i32 0, i32 0
  %8 = load ptr, ptr %7, align 8
  %9 = load ptr, ptr %4, align 8
  %10 = load ptr, ptr %3, align 8
  %11 = getelementptr inbounds %struct.context_type, ptr %10, i32 0, i32 7
  %12 = load ptr, ptr %11, align 8
  %13 = call ptr @JVM_FindClassFromClass(ptr noundef %8, ptr noundef %9, i8 noundef zeroext 0, ptr noundef %12)
  store ptr %13, ptr %5, align 8
  %14 = load ptr, ptr %5, align 8
  %15 = icmp eq ptr %14, null
  br i1 %15, label %16, label %19

16:                                               ; preds = %2
  %17 = load ptr, ptr %3, align 8
  %18 = load ptr, ptr %4, align 8
  call void (ptr, ptr, ...) @CCerror(ptr noundef %17, ptr noundef @.str.51, ptr noundef %18)
  br label %19

19:                                               ; preds = %16, %2
  %20 = load ptr, ptr %5, align 8
  ret ptr %20
}

; Function Attrs: nounwind uwtable
define internal ptr @load_class_global(ptr noundef %0, ptr noundef %1) #0 {
  %3 = alloca ptr, align 8
  %4 = alloca ptr, align 8
  %5 = alloca ptr, align 8
  %6 = alloca ptr, align 8
  %7 = alloca ptr, align 8
  store ptr %0, ptr %3, align 8
  store ptr %1, ptr %4, align 8
  %8 = load ptr, ptr %3, align 8
  %9 = getelementptr inbounds %struct.context_type, ptr %8, i32 0, i32 0
  %10 = load ptr, ptr %9, align 8
  store ptr %10, ptr %5, align 8
  %11 = load ptr, ptr %3, align 8
  %12 = load ptr, ptr %4, align 8
  %13 = call ptr @load_class_local(ptr noundef %11, ptr noundef %12)
  store ptr %13, ptr %6, align 8
  %14 = load ptr, ptr %5, align 8
  %15 = load ptr, ptr %14, align 8
  %16 = getelementptr inbounds %struct.JNINativeInterface_, ptr %15, i32 0, i32 21
  %17 = load ptr, ptr %16, align 8
  %18 = load ptr, ptr %5, align 8
  %19 = load ptr, ptr %6, align 8
  %20 = call ptr %17(ptr noundef %18, ptr noundef %19)
  store ptr %20, ptr %7, align 8
  %21 = load ptr, ptr %7, align 8
  %22 = icmp eq ptr %21, null
  br i1 %22, label %23, label %25

23:                                               ; preds = %2
  %24 = load ptr, ptr %3, align 8
  call void @CCout_of_memory(ptr noundef %24)
  br label %25

25:                                               ; preds = %23, %2
  %26 = load ptr, ptr %5, align 8
  %27 = load ptr, ptr %26, align 8
  %28 = getelementptr inbounds %struct.JNINativeInterface_, ptr %27, i32 0, i32 23
  %29 = load ptr, ptr %28, align 8
  %30 = load ptr, ptr %5, align 8
  %31 = load ptr, ptr %6, align 8
  call void %29(ptr noundef %30, ptr noundef %31)
  %32 = load ptr, ptr %7, align 8
  ret ptr %32
}

; Function Attrs: nounwind uwtable
define internal ptr @ID_to_class(ptr noundef %0, i16 noundef zeroext %1) #0 {
  %3 = alloca ptr, align 8
  %4 = alloca i16, align 2
  %5 = alloca ptr, align 8
  %6 = alloca ptr, align 8
  store ptr %0, ptr %3, align 8
  store i16 %1, ptr %4, align 2
  %7 = load ptr, ptr %3, align 8
  %8 = getelementptr inbounds %struct.context_type, ptr %7, i32 0, i32 11
  store ptr %8, ptr %5, align 8
  %9 = load ptr, ptr %5, align 8
  %10 = getelementptr inbounds %struct.hash_table_type, ptr %9, i32 0, i32 0
  %11 = load ptr, ptr %10, align 8
  %12 = load i16, ptr %4, align 2
  %13 = zext i16 %12 to i32
  %14 = sdiv i32 %13, 256
  %15 = sext i32 %14 to i64
  %16 = getelementptr inbounds ptr, ptr %11, i64 %15
  %17 = load ptr, ptr %16, align 8
  %18 = load i16, ptr %4, align 2
  %19 = zext i16 %18 to i32
  %20 = srem i32 %19, 256
  %21 = sext i32 %20 to i64
  %22 = getelementptr inbounds %struct.hash_bucket_type, ptr %17, i64 %21
  store ptr %22, ptr %6, align 8
  %23 = load ptr, ptr %6, align 8
  %24 = getelementptr inbounds %struct.hash_bucket_type, ptr %23, i32 0, i32 2
  %25 = load ptr, ptr %24, align 8
  %26 = icmp eq ptr %25, null
  br i1 %26, label %27, label %35

27:                                               ; preds = %2
  %28 = load ptr, ptr %3, align 8
  %29 = load ptr, ptr %6, align 8
  %30 = getelementptr inbounds %struct.hash_bucket_type, ptr %29, i32 0, i32 0
  %31 = load ptr, ptr %30, align 8
  %32 = call ptr @load_class_global(ptr noundef %28, ptr noundef %31)
  %33 = load ptr, ptr %6, align 8
  %34 = getelementptr inbounds %struct.hash_bucket_type, ptr %33, i32 0, i32 2
  store ptr %32, ptr %34, align 8
  br label %35

35:                                               ; preds = %27, %2
  %36 = load ptr, ptr %6, align 8
  %37 = getelementptr inbounds %struct.hash_bucket_type, ptr %36, i32 0, i32 2
  %38 = load ptr, ptr %37, align 8
  ret ptr %38
}

; Function Attrs: nounwind uwtable
define internal ptr @object_fullinfo_to_classclass(ptr noundef %0, i32 noundef %1) #0 {
  %3 = alloca ptr, align 8
  %4 = alloca i32, align 4
  %5 = alloca i16, align 2
  store ptr %0, ptr %3, align 8
  store i32 %1, ptr %4, align 4
  %6 = load i32, ptr %4, align 4
  %7 = lshr i32 %6, 16
  %8 = trunc i32 %7 to i16
  store i16 %8, ptr %5, align 2
  %9 = load ptr, ptr %3, align 8
  %10 = load i16, ptr %5, align 2
  %11 = call ptr @ID_to_class(ptr noundef %9, i16 noundef zeroext %10)
  ret ptr %11
}