; Function Attrs: nounwind uwtable
define internal fastcc ptr @object_fullinfo_to_classclass(ptr noundef %0, i32 noundef %1) unnamed_addr #0 {
  %3 = lshr i32 %1, 16
  %4 = getelementptr inbounds i8, ptr %0, i64 448
  %5 = load ptr, ptr %4, align 8
  %6 = lshr i32 %1, 24
  %7 = zext nneg i32 %6 to i64
  %8 = getelementptr inbounds ptr, ptr %5, i64 %7
  %9 = load ptr, ptr %8, align 8
  %10 = and i32 %3, 255
  %11 = zext nneg i32 %10 to i64
  %12 = getelementptr inbounds %struct.hash_bucket_type, ptr %9, i64 %11
  %13 = getelementptr inbounds i8, ptr %12, i64 16
  %14 = load ptr, ptr %13, align 8
  %15 = icmp eq ptr %14, null
  br i1 %15, label %16, label %ID_to_class.exit

16:                                               ; preds = %2
  %17 = load ptr, ptr %12, align 8
  %18 = load ptr, ptr %0, align 8
  %19 = getelementptr inbounds i8, ptr %0, i64 424
  %20 = load ptr, ptr %19, align 8
  %21 = tail call ptr @JVM_FindClassFromClass(ptr noundef %18, ptr noundef %17, i8 noundef zeroext 0, ptr noundef %20) #20
  %22 = icmp eq ptr %21, null
  br i1 %22, label %23, label %load_class_local.exit.i.i

23:                                               ; preds = %16
  tail call void (ptr, ptr, ...) @CCerror(ptr noundef nonnull %0, ptr noundef nonnull @.str.51, ptr noundef %17)
  unreachable

load_class_local.exit.i.i:                        ; preds = %16
  %24 = load ptr, ptr %18, align 8
  %25 = getelementptr inbounds i8, ptr %24, i64 168
  %26 = load ptr, ptr %25, align 8
  %27 = tail call ptr %26(ptr noundef nonnull %18, ptr noundef nonnull %21) #20
  %28 = icmp eq ptr %27, null
  br i1 %28, label %29, label %load_class_global.exit.i

29:                                               ; preds = %load_class_local.exit.i.i
  %30 = tail call fastcc i32 @print_CCerror_info(ptr noundef nonnull %0)
  %31 = getelementptr inbounds i8, ptr %0, i64 20
  store i8 2, ptr %31, align 4
  %32 = getelementptr inbounds i8, ptr %0, i64 624
  tail call void @longjmp(ptr noundef nonnull %32, i32 noundef 1) #17
  unreachable

load_class_global.exit.i:                         ; preds = %load_class_local.exit.i.i
  %33 = load ptr, ptr %18, align 8
  %34 = getelementptr inbounds i8, ptr %33, i64 184
  %35 = load ptr, ptr %34, align 8
  tail call void %35(ptr noundef nonnull %18, ptr noundef nonnull %21) #20
  store ptr %27, ptr %13, align 8
  br label %ID_to_class.exit

ID_to_class.exit:                                 ; preds = %2, %load_class_global.exit.i
  %36 = phi ptr [ %27, %load_class_global.exit.i ], [ %14, %2 ]
  ret ptr %36
}